#include <math.h>
#include <stdio.h>
#include <stdlib.h>
#include <string.h>

//#include<string.h>
int i,n,a[1000],max,min;
float aver;

int main(){
    
    scanf("%d",&n);
    scanf("%d",&a[0]);
    min=a[0];max=a[0];aver=a[0];
    for(i=1;i<n;i++){
        scanf("%d",&a[i]);
        aver+=a[i];
        if(a[i]>max)  max=a[i];
        if(a[i]<min)  min=a[i];
    }
    aver/=n;
    
    if(max+min-aver*2==0)  printf("%d,%d\n",min,max);
    if(max+min-aver*2<0)  printf("%d\n",min);
    if(max+min-aver*2>0)  printf("%d\n",max);

scanf("%d",&i);
return 0;
}
